; Function Attrs: nounwind uwtable
define dso_local range(i32 -901, 1) i32 @nghttp2_bufs_init(ptr noundef writeonly captures(none) %0, i64 noundef %1, i64 noundef %2, ptr noundef %3) local_unnamed_addr #1 {
  %or.cond.i.i = icmp eq i64 %2, 0
  br i1 %or.cond.i.i, label %nghttp2_bufs_init2.exit, label %5

5:                                                ; preds = %4
  %6 = tail call ptr @nghttp2_mem_malloc(ptr noundef %3, i64 noundef 48) #10
  %7 = icmp eq ptr %6, null
  br i1 %7, label %nghttp2_bufs_init2.exit, label %8

8:                                                ; preds = %5
  %9 = getelementptr inbounds nuw i8, ptr %6, i64 8
  %10 = getelementptr inbounds nuw i8, ptr %6, i64 16
  %.not.i.not.i.i.i.i = icmp eq i64 %1, 0
  tail call void @llvm.memset.p0.i64(ptr noundef nonnull align 8 dereferenceable(48) %6, i8 0, i64 48, i1 false)
  br i1 %.not.i.not.i.i.i.i, label %33, label %11

11:                                               ; preds = %8
  %12 = tail call ptr @nghttp2_mem_realloc(ptr noundef %3, ptr noundef null, i64 noundef %1) #10
  %13 = icmp eq ptr %12, null
  br i1 %13, label %nghttp2_buf_init2.exit.i.i.i, label %14

14:                                               ; preds = %11
  %15 = getelementptr inbounds nuw i8, ptr %6, i64 24
  %16 = load ptr, ptr %15, align 8, !tbaa !4
  %17 = load ptr, ptr %9, align 8, !tbaa !10
  %18 = ptrtoint ptr %16 to i64
  %19 = ptrtoint ptr %17 to i64
  %20 = sub i64 %18, %19
  %21 = getelementptr inbounds i8, ptr %12, i64 %20
  %22 = getelementptr inbounds nuw i8, ptr %6, i64 32
  %23 = load ptr, ptr %22, align 8, !tbaa !11
  %24 = ptrtoint ptr %23 to i64
  %25 = sub i64 %24, %19
  %26 = getelementptr inbounds i8, ptr %12, i64 %25
  %27 = getelementptr inbounds nuw i8, ptr %6, i64 40
  %28 = load ptr, ptr %27, align 8, !tbaa !12
  %29 = ptrtoint ptr %28 to i64
  %30 = sub i64 %29, %19
  %31 = getelementptr inbounds i8, ptr %12, i64 %30
  store ptr %31, ptr %27, align 8, !tbaa !12
  store ptr %12, ptr %9, align 8, !tbaa !10
  %32 = getelementptr inbounds nuw i8, ptr %12, i64 %1
  store ptr %32, ptr %10, align 8, !tbaa !13
  br label %33

nghttp2_buf_init2.exit.i.i.i:                     ; preds = %11
  tail call void @nghttp2_mem_free(ptr noundef %3, ptr noundef nonnull %6) #10
  br label %nghttp2_bufs_init2.exit

33:                                               ; preds = %14, %8
  %34 = phi ptr [ %26, %14 ], [ null, %8 ]
  %35 = phi ptr [ %21, %14 ], [ null, %8 ]
  %36 = getelementptr inbounds nuw i8, ptr %0, i64 16
  store ptr %3, ptr %36, align 8, !tbaa !14
  %37 = getelementptr inbounds nuw i8, ptr %0, i64 56
  store i64 0, ptr %37, align 8, !tbaa !18
  store ptr %6, ptr %0, align 8, !tbaa !19
  %38 = getelementptr inbounds nuw i8, ptr %0, i64 8
  store ptr %6, ptr %38, align 8, !tbaa !20
  %39 = getelementptr inbounds nuw i8, ptr %6, i64 24
  store ptr %35, ptr %39, align 8, !tbaa !21
  %40 = getelementptr inbounds nuw i8, ptr %6, i64 32
  store ptr %34, ptr %40, align 8, !tbaa !23
  %41 = getelementptr inbounds nuw i8, ptr %0, i64 24
  store i64 %1, ptr %41, align 8, !tbaa !24
  %42 = getelementptr inbounds nuw i8, ptr %0, i64 40
  store i64 1, ptr %42, align 8, !tbaa !25
  %43 = getelementptr inbounds nuw i8, ptr %0, i64 32
  store i64 %2, ptr %43, align 8, !tbaa !26
  %44 = getelementptr inbounds nuw i8, ptr %0, i64 48
  store i64 %2, ptr %44, align 8, !tbaa !27
  br label %nghttp2_bufs_init2.exit

nghttp2_bufs_init2.exit:                          ; preds = %4, %5, %nghttp2_buf_init2.exit.i.i.i, %33
  %.0.i.i = phi i32 [ 0, %33 ], [ -501, %4 ], [ -901, %nghttp2_buf_init2.exit.i.i.i ], [ -901, %5 ]
  ret i32 %.0.i.i
}